target datalayout = "e-m:e-p270:32:32-p271:32:32-p272:64:64-i64:64-i128:128-f80:128-n8:16:32:64-S128"
target triple = "x86_64-pc-linux-gnu"

%struct.yyguts_t = type { ptr, ptr, ptr, i64, i64, ptr, i8, i32, i32, ptr, i32, i32, i32, i32, i32, ptr, i32, ptr, i32, i32, ptr, i32, i32 }
%struct.uat_load_scanner_state_t = type { ptr, ptr, ptr, i8, i32, ptr, i32, ptr, i32, i64 }
%struct.epan_uat = type { ptr, i64, ptr, i8, ptr, i32, ptr, ptr, ptr, ptr, ptr, ptr, ptr, ptr, ptr, i32, ptr, ptr, ptr, i8, ptr, ptr, i8 }
%struct._GArray = type { ptr, i32 }

@.str.19 = private unnamed_addr constant [2 x i8] c"r\00", align 1

; Function Attrs: nounwind null_pointer_is_valid sspstrong uwtable
define internal i32 @yy_init_globals(ptr noundef %0) #2 {
  %2 = alloca ptr, align 8
  %3 = alloca ptr, align 8
  store ptr %0, ptr %2, align 8
  call void @llvm.lifetime.start.p0(i64 8, ptr %3) #17
  %4 = load ptr, ptr %2, align 8
  store ptr %4, ptr %3, align 8
  %5 = load ptr, ptr %3, align 8
  %6 = getelementptr inbounds nuw %struct.yyguts_t, ptr %5, i32 0, i32 5
  store ptr null, ptr %6, align 8
  %7 = load ptr, ptr %3, align 8
  %8 = getelementptr inbounds nuw %struct.yyguts_t, ptr %7, i32 0, i32 3
  store i64 0, ptr %8, align 8
  %9 = load ptr, ptr %3, align 8
  %10 = getelementptr inbounds nuw %struct.yyguts_t, ptr %9, i32 0, i32 4
  store i64 0, ptr %10, align 8
  %11 = load ptr, ptr %3, align 8
  %12 = getelementptr inbounds nuw %struct.yyguts_t, ptr %11, i32 0, i32 9
  store ptr null, ptr %12, align 8
  %13 = load ptr, ptr %3, align 8
  %14 = getelementptr inbounds nuw %struct.yyguts_t, ptr %13, i32 0, i32 10
  store i32 0, ptr %14, align 8
  %15 = load ptr, ptr %3, align 8
  %16 = getelementptr inbounds nuw %struct.yyguts_t, ptr %15, i32 0, i32 11
  store i32 0, ptr %16, align 4
  %17 = load ptr, ptr %3, align 8
  %18 = getelementptr inbounds nuw %struct.yyguts_t, ptr %17, i32 0, i32 13
  store i32 0, ptr %18, align 4
  %19 = load ptr, ptr %3, align 8
  %20 = getelementptr inbounds nuw %struct.yyguts_t, ptr %19, i32 0, i32 14
  store i32 0, ptr %20, align 8
  %21 = load ptr, ptr %3, align 8
  %22 = getelementptr inbounds nuw %struct.yyguts_t, ptr %21, i32 0, i32 15
  store ptr null, ptr %22, align 8
  %23 = load ptr, ptr %3, align 8
  %24 = getelementptr inbounds nuw %struct.yyguts_t, ptr %23, i32 0, i32 1
  store ptr null, ptr %24, align 8
  %25 = load ptr, ptr %3, align 8
  %26 = getelementptr inbounds nuw %struct.yyguts_t, ptr %25, i32 0, i32 2
  store ptr null, ptr %26, align 8
  call void @llvm.lifetime.end.p0(i64 8, ptr %3) #17
  ret i32 0
}

; Function Attrs: alwaysinline nounwind
define internal ptr @memset.inline(ptr %0, i32 %1, i64 %2) #5 {
  %4 = alloca ptr, align 8
  %5 = alloca i32, align 4
  %6 = alloca i64, align 8
  store ptr %0, ptr %4, align 8
  store i32 %1, ptr %5, align 4
  store i64 %2, ptr %6, align 8
  %7 = load ptr, ptr %4, align 8
  %8 = load i32, ptr %5, align 4
  %9 = load i64, ptr %6, align 8
  %10 = load ptr, ptr %4, align 8
  %11 = call i64 @llvm.objectsize.i64.p0(ptr %10, i1 false, i1 true, i1 true)
  %12 = call ptr @__memset_chk(ptr noundef %7, i32 noundef %8, i64 noundef %9, i64 noundef %11) #17
  ret ptr %12
}

; Function Attrs: nounwind null_pointer_is_valid sspstrong uwtable
define hidden void @uat_load_set_extra(ptr noundef %0, ptr noundef %1) #2 {
  %3 = alloca ptr, align 8
  %4 = alloca ptr, align 8
  %5 = alloca ptr, align 8
  store ptr %0, ptr %3, align 8
  store ptr %1, ptr %4, align 8
  call void @llvm.lifetime.start.p0(i64 8, ptr %5) #17
  %6 = load ptr, ptr %4, align 8
  store ptr %6, ptr %5, align 8
  %7 = load ptr, ptr %3, align 8
  %8 = load ptr, ptr %5, align 8
  %9 = getelementptr inbounds nuw %struct.yyguts_t, ptr %8, i32 0, i32 0
  store ptr %7, ptr %9, align 8
  call void @llvm.lifetime.end.p0(i64 8, ptr %5) #17
  ret void
}

; Function Attrs: nounwind null_pointer_is_valid sspstrong uwtable
define hidden void @uat_load_set_in(ptr noundef %0, ptr noundef %1) #2 {
  %3 = alloca ptr, align 8
  %4 = alloca ptr, align 8
  %5 = alloca ptr, align 8
  store ptr %0, ptr %3, align 8
  store ptr %1, ptr %4, align 8
  call void @llvm.lifetime.start.p0(i64 8, ptr %5) #17
  %6 = load ptr, ptr %4, align 8
  store ptr %6, ptr %5, align 8
  %7 = load ptr, ptr %3, align 8
  %8 = load ptr, ptr %5, align 8
  %9 = getelementptr inbounds nuw %struct.yyguts_t, ptr %8, i32 0, i32 1
  store ptr %7, ptr %9, align 8
  call void @llvm.lifetime.end.p0(i64 8, ptr %5) #17
  ret void
}

; Function Attrs: null_pointer_is_valid sspstrong uwtable
define hidden i32 @uat_load_lex_init(ptr noundef %0) #0 {
  %2 = alloca i32, align 4
  %3 = alloca ptr, align 8
  store ptr %0, ptr %3, align 8
  %4 = load ptr, ptr %3, align 8
  %5 = icmp eq ptr %4, null
  br i1 %5, label %6, label %8

6:                                                ; preds = %1
  %7 = call ptr @__errno_location() #22
  store i32 22, ptr %7, align 4
  store i32 1, ptr %2, align 4
  br label %23

8:                                                ; preds = %1
  %9 = call noalias ptr @malloc(i64 noundef 144) #20
  %10 = load ptr, ptr %3, align 8
  store ptr %9, ptr %10, align 8
  %11 = load ptr, ptr %3, align 8
  %12 = load ptr, ptr %11, align 8
  %13 = icmp eq ptr %12, null
  br i1 %13, label %14, label %16

14:                                               ; preds = %8
  %15 = call ptr @__errno_location() #22
  store i32 12, ptr %15, align 4
  store i32 1, ptr %2, align 4
  br label %23

16:                                               ; preds = %8
  %17 = load ptr, ptr %3, align 8
  %18 = load ptr, ptr %17, align 8
  %19 = call ptr @memset.inline(ptr noundef %18, i32 noundef 0, i64 noundef 144) #17
  %20 = load ptr, ptr %3, align 8
  %21 = load ptr, ptr %20, align 8
  %22 = call i32 @yy_init_globals(ptr noundef %21)
  store i32 %22, ptr %2, align 4
  br label %23

23:                                               ; preds = %16, %14, %6
  %24 = load i32, ptr %2, align 4
  ret i32 %24
}

; Function Attrs: null_pointer_is_valid sspstrong uwtable
define zeroext i1 @uat_load(ptr noundef %0, ptr noundef %1, ptr noundef %2) #0 {
  %4 = alloca i1, align 1
  %5 = alloca ptr, align 8
  %6 = alloca ptr, align 8
  %7 = alloca ptr, align 8
  %8 = alloca ptr, align 8
  %9 = alloca ptr, align 8
  %10 = alloca ptr, align 8
  %11 = alloca %struct.uat_load_scanner_state_t, align 8
  %12 = alloca i32, align 4
  store ptr %0, ptr %5, align 8
  store ptr %1, ptr %6, align 8
  store ptr %2, ptr %7, align 8
  call void @llvm.lifetime.start.p0(i64 8, ptr %8) #17
  call void @llvm.lifetime.start.p0(i64 8, ptr %9) #17
  call void @llvm.lifetime.start.p0(i64 8, ptr %10) #17
  call void @llvm.lifetime.start.p0(i64 72, ptr %11) #17
  %13 = load ptr, ptr %6, align 8
  %14 = icmp ne ptr %13, null
  br i1 %14, label %15, label %18

15:                                               ; preds = %3
  %16 = load ptr, ptr %6, align 8
  %17 = call noalias ptr @g_strdup(ptr noundef %16)
  store ptr %17, ptr %8, align 8
  br label %21

18:                                               ; preds = %3
  %19 = load ptr, ptr %5, align 8
  %20 = call ptr @uat_get_actual_filename(ptr noundef %19, i1 noundef zeroext false)
  store ptr %20, ptr %8, align 8
  br label %21

21:                                               ; preds = %18, %15
  %22 = load ptr, ptr %8, align 8
  %23 = icmp ne ptr %22, null
  br i1 %23, label %53, label %24

24:                                               ; preds = %21
  br label %25

25:                                               ; preds = %24
  %26 = load ptr, ptr %5, align 8
  %27 = getelementptr inbounds nuw %struct.epan_uat, ptr %26, i32 0, i32 16
  %28 = load ptr, ptr %27, align 8
  %29 = getelementptr inbounds nuw %struct._GArray, ptr %28, i32 0, i32 0
  %30 = load ptr, ptr %29, align 8
  %31 = load ptr, ptr %5, align 8
  %32 = getelementptr inbounds nuw %struct.epan_uat, ptr %31, i32 0, i32 6
  %33 = load ptr, ptr %32, align 8
  store ptr %30, ptr %33, align 8
  %34 = load ptr, ptr %5, align 8
  %35 = getelementptr inbounds nuw %struct.epan_uat, ptr %34, i32 0, i32 16
  %36 = load ptr, ptr %35, align 8
  %37 = getelementptr inbounds nuw %struct._GArray, ptr %36, i32 0, i32 1
  %38 = load i32, ptr %37, align 8
  %39 = load ptr, ptr %5, align 8
  %40 = getelementptr inbounds nuw %struct.epan_uat, ptr %39, i32 0, i32 7
  %41 = load ptr, ptr %40, align 8
  store i32 %38, ptr %41, align 4
  br label %42

42:                                               ; preds = %25
  br label %43

43:                                               ; preds = %42
  %44 = load ptr, ptr %5, align 8
  %45 = getelementptr inbounds nuw %struct.epan_uat, ptr %44, i32 0, i32 11
  %46 = load ptr, ptr %45, align 8
  %47 = icmp ne ptr %46, null
  br i1 %47, label %48, label %52

48:                                               ; preds = %43
  %49 = load ptr, ptr %5, align 8
  %50 = getelementptr inbounds nuw %struct.epan_uat, ptr %49, i32 0, i32 11
  %51 = load ptr, ptr %50, align 8
  call void %51()
  br label %52

52:                                               ; preds = %48, %43
  store i1 true, ptr %4, align 1
  store i32 1, ptr %12, align 4
  br label %145

53:                                               ; preds = %21
  %54 = load ptr, ptr %8, align 8
  %55 = call noalias ptr @fopen(ptr noundef %54, ptr noundef @.str.19)
  store ptr %55, ptr %9, align 8
  %56 = icmp ne ptr %55, null
  br i1 %56, label %64, label %57

57:                                               ; preds = %53
  %58 = call ptr @__errno_location() #22
  %59 = load i32, ptr %58, align 4
  %60 = call ptr @g_strerror(i32 noundef %59) #22
  %61 = call noalias ptr @g_strdup(ptr noundef %60)
  %62 = load ptr, ptr %7, align 8
  store ptr %61, ptr %62, align 8
  %63 = load ptr, ptr %8, align 8
  call void @g_free(ptr noundef %63)
  store i1 false, ptr %4, align 1
  store i32 1, ptr %12, align 4
  br label %145

64:                                               ; preds = %53
  %65 = call i32 @uat_load_lex_init(ptr noundef %10)
  %66 = icmp ne i32 %65, 0
  br i1 %66, label %67, label %76

67:                                               ; preds = %64
  %68 = call ptr @__errno_location() #22
  %69 = load i32, ptr %68, align 4
  %70 = call ptr @g_strerror(i32 noundef %69) #22
  %71 = call noalias ptr @g_strdup(ptr noundef %70)
  %72 = load ptr, ptr %7, align 8
  store ptr %71, ptr %72, align 8
  %73 = load ptr, ptr %9, align 8
  %74 = call i32 @fclose(ptr noundef %73)
  %75 = load ptr, ptr %8, align 8
  call void @g_free(ptr noundef %75)
  store i1 false, ptr %4, align 1
  store i32 1, ptr %12, align 4
  br label %145

76:                                               ; preds = %64
  %77 = load ptr, ptr %9, align 8
  %78 = load ptr, ptr %10, align 8
  call void @uat_load_set_in(ptr noundef %77, ptr noundef %78)
  %79 = load ptr, ptr %5, align 8
  %80 = getelementptr inbounds nuw %struct.uat_load_scanner_state_t, ptr %11, i32 0, i32 0
  store ptr %79, ptr %80, align 8
  %81 = getelementptr inbounds nuw %struct.uat_load_scanner_state_t, ptr %11, i32 0, i32 1
  store ptr null, ptr %81, align 8
  %82 = getelementptr inbounds nuw %struct.uat_load_scanner_state_t, ptr %11, i32 0, i32 2
  store ptr null, ptr %82, align 8
  %83 = getelementptr inbounds nuw %struct.uat_load_scanner_state_t, ptr %11, i32 0, i32 3
  store i8 1, ptr %83, align 8
  %84 = getelementptr inbounds nuw %struct.uat_load_scanner_state_t, ptr %11, i32 0, i32 4
  store i32 0, ptr %84, align 4
  %85 = getelementptr inbounds nuw %struct.uat_load_scanner_state_t, ptr %11, i32 0, i32 5
  store ptr null, ptr %85, align 8
  %86 = getelementptr inbounds nuw %struct.uat_load_scanner_state_t, ptr %11, i32 0, i32 6
  store i32 0, ptr %86, align 8
  %87 = load ptr, ptr %5, align 8
  %88 = getelementptr inbounds nuw %struct.epan_uat, ptr %87, i32 0, i32 1
  %89 = load i64, ptr %88, align 8
  %90 = call noalias ptr @g_malloc0(i64 noundef %89) #24
  %91 = getelementptr inbounds nuw %struct.uat_load_scanner_state_t, ptr %11, i32 0, i32 7
  store ptr %90, ptr %91, align 8
  %92 = getelementptr inbounds nuw %struct.uat_load_scanner_state_t, ptr %11, i32 0, i32 8
  store i32 1, ptr %92, align 8
  %93 = getelementptr inbounds nuw %struct.uat_load_scanner_state_t, ptr %11, i32 0, i32 9
  store i64 0, ptr %93, align 8
  %94 = load ptr, ptr %8, align 8
  call void @g_free(ptr noundef %94)
  %95 = load ptr, ptr %10, align 8
  call void @uat_load_set_extra(ptr noundef %11, ptr noundef %95)
  %96 = load ptr, ptr %10, align 8
  %97 = call i32 @uat_load_lex(ptr noundef %96)
  %98 = load ptr, ptr %10, align 8
  %99 = call i32 @uat_load_lex_destroy(ptr noundef %98)
  %100 = getelementptr inbounds nuw %struct.uat_load_scanner_state_t, ptr %11, i32 0, i32 7
  %101 = load ptr, ptr %100, align 8
  call void @g_free(ptr noundef %101)
  %102 = load ptr, ptr %9, align 8
  %103 = call i32 @fclose(ptr noundef %102)
  %104 = load ptr, ptr %5, align 8
  %105 = getelementptr inbounds nuw %struct.epan_uat, ptr %104, i32 0, i32 19
  store i8 0, ptr %105, align 8
  %106 = load ptr, ptr %5, align 8
  %107 = getelementptr inbounds nuw %struct.epan_uat, ptr %106, i32 0, i32 22
  store i8 1, ptr %107, align 8
  br label %108

108:                                              ; preds = %76
  %109 = load ptr, ptr %5, align 8
  %110 = getelementptr inbounds nuw %struct.epan_uat, ptr %109, i32 0, i32 16
  %111 = load ptr, ptr %110, align 8
  %112 = getelementptr inbounds nuw %struct._GArray, ptr %111, i32 0, i32 0
  %113 = load ptr, ptr %112, align 8
  %114 = load ptr, ptr %5, align 8
  %115 = getelementptr inbounds nuw %struct.epan_uat, ptr %114, i32 0, i32 6
  %116 = load ptr, ptr %115, align 8
  store ptr %113, ptr %116, align 8
  %117 = load ptr, ptr %5, align 8
  %118 = getelementptr inbounds nuw %struct.epan_uat, ptr %117, i32 0, i32 16
  %119 = load ptr, ptr %118, align 8
  %120 = getelementptr inbounds nuw %struct._GArray, ptr %119, i32 0, i32 1
  %121 = load i32, ptr %120, align 8
  %122 = load ptr, ptr %5, align 8
  %123 = getelementptr inbounds nuw %struct.epan_uat, ptr %122, i32 0, i32 7
  %124 = load ptr, ptr %123, align 8
  store i32 %121, ptr %124, align 4
  br label %125

125:                                              ; preds = %108
  br label %126

126:                                              ; preds = %125
  %127 = getelementptr inbounds nuw %struct.uat_load_scanner_state_t, ptr %11, i32 0, i32 2
  %128 = load ptr, ptr %127, align 8
  %129 = icmp ne ptr %128, null
  br i1 %129, label %130, label %134

130:                                              ; preds = %126
  %131 = getelementptr inbounds nuw %struct.uat_load_scanner_state_t, ptr %11, i32 0, i32 2
  %132 = load ptr, ptr %131, align 8
  %133 = load ptr, ptr %7, align 8
  store ptr %132, ptr %133, align 8
  store i1 false, ptr %4, align 1
  store i32 1, ptr %12, align 4
  br label %145

134:                                              ; preds = %126
  %135 = load ptr, ptr %5, align 8
  %136 = getelementptr inbounds nuw %struct.epan_uat, ptr %135, i32 0, i32 11
  %137 = load ptr, ptr %136, align 8
  %138 = icmp ne ptr %137, null
  br i1 %138, label %139, label %143

139:                                              ; preds = %134
  %140 = load ptr, ptr %5, align 8
  %141 = getelementptr inbounds nuw %struct.epan_uat, ptr %140, i32 0, i32 11
  %142 = load ptr, ptr %141, align 8
  call void %142()
  br label %143

143:                                              ; preds = %139, %134
  %144 = load ptr, ptr %7, align 8
  store ptr null, ptr %144, align 8
  store i1 true, ptr %4, align 1
  store i32 1, ptr %12, align 4
  br label %145

145:                                              ; preds = %143, %130, %67, %57, %52
  call void @llvm.lifetime.end.p0(i64 72, ptr %11) #17
  call void @llvm.lifetime.end.p0(i64 8, ptr %10) #17
  call void @llvm.lifetime.end.p0(i64 8, ptr %9) #17
  call void @llvm.lifetime.end.p0(i64 8, ptr %8) #17
  %146 = load i1, ptr %4, align 1
  ret i1 %146
}