; Function Attrs: null_pointer_is_valid sspstrong uwtable
define noundef zeroext i1 @uat_load(ptr noundef %0, ptr noundef %1, ptr noundef writeonly captures(none) %2) local_unnamed_addr #0 {
  %4 = alloca %struct.uat_load_scanner_state_t, align 8
  call void @llvm.lifetime.start.p0(i64 72, ptr nonnull %4) #26
  %.not = icmp eq ptr %1, null
  br i1 %.not, label %7, label %5

5:                                                ; preds = %3
  %6 = tail call noalias ptr @g_strdup(ptr noundef nonnull %1)
  br label %9

7:                                                ; preds = %3
  %8 = tail call ptr @uat_get_actual_filename(ptr noundef %0, i1 noundef zeroext false)
  br label %9

9:                                                ; preds = %7, %5
  %.032 = phi ptr [ %6, %5 ], [ %8, %7 ]
  %.not38 = icmp eq ptr %.032, null
  br i1 %.not38, label %10, label %24

10:                                               ; preds = %9
  %11 = getelementptr inbounds nuw i8, ptr %0, i64 128
  %12 = load ptr, ptr %11, align 8
  %13 = load ptr, ptr %12, align 8
  %14 = getelementptr inbounds nuw i8, ptr %0, i64 48
  %15 = load ptr, ptr %14, align 8
  store ptr %13, ptr %15, align 8
  %16 = load ptr, ptr %11, align 8
  %17 = getelementptr inbounds nuw i8, ptr %16, i64 8
  %18 = load i32, ptr %17, align 8
  %19 = getelementptr inbounds nuw i8, ptr %0, i64 56
  %20 = load ptr, ptr %19, align 8
  store i32 %18, ptr %20, align 4
  %21 = getelementptr inbounds nuw i8, ptr %0, i64 88
  %22 = load ptr, ptr %21, align 8
  %.not39 = icmp eq ptr %22, null
  br i1 %.not39, label %73, label %23

23:                                               ; preds = %10
  tail call void %22()
  br label %73

24:                                               ; preds = %9
  %25 = tail call noalias ptr @fopen(ptr noundef nonnull %.032, ptr noundef nonnull @.str.19)
  %.not40 = icmp eq ptr %25, null
  br i1 %.not40, label %26, label %31

26:                                               ; preds = %24
  %27 = tail call ptr @__errno_location() #30
  %28 = load i32, ptr %27, align 4
  %29 = tail call ptr @g_strerror(i32 noundef %28) #30
  %30 = tail call noalias ptr @g_strdup(ptr noundef %29)
  store ptr %30, ptr %2, align 8
  tail call void @g_free(ptr noundef nonnull %.032)
  br label %73

31:                                               ; preds = %24
  %calloc.i = tail call dereferenceable_or_null(144) ptr @calloc(i64 1, i64 144)
  %32 = icmp eq ptr %calloc.i, null
  br i1 %32, label %33, label %38

33:                                               ; preds = %31
  %34 = tail call ptr @__errno_location() #30
  store i32 12, ptr %34, align 4
  %35 = tail call ptr @g_strerror(i32 noundef 12) #30
  %36 = tail call noalias ptr @g_strdup(ptr noundef %35)
  store ptr %36, ptr %2, align 8
  %37 = tail call i32 @fclose(ptr noundef nonnull %25)
  tail call void @g_free(ptr noundef nonnull %.032)
  br label %73

38:                                               ; preds = %31
  %39 = getelementptr inbounds nuw i8, ptr %calloc.i, i64 8
  store ptr %25, ptr %39, align 8
  store ptr %0, ptr %4, align 8
  %40 = getelementptr inbounds nuw i8, ptr %4, i64 8
  %41 = getelementptr inbounds nuw i8, ptr %4, i64 16
  %42 = getelementptr inbounds nuw i8, ptr %4, i64 24
  call void @llvm.memset.p0.i64(ptr noundef nonnull align 8 dereferenceable(16) %40, i8 0, i64 16, i1 false)
  store i8 1, ptr %42, align 8
  %43 = getelementptr inbounds nuw i8, ptr %4, i64 28
  %44 = getelementptr inbounds nuw i8, ptr %0, i64 8
  call void @llvm.memset.p0.i64(ptr noundef nonnull align 4 dereferenceable(16) %43, i8 0, i64 16, i1 false)
  %45 = load i64, ptr %44, align 8
  %46 = tail call noalias ptr @g_malloc0(i64 noundef %45) #33
  %47 = getelementptr inbounds nuw i8, ptr %4, i64 48
  store ptr %46, ptr %47, align 8
  %48 = getelementptr inbounds nuw i8, ptr %4, i64 56
  store i32 1, ptr %48, align 8
  %49 = getelementptr inbounds nuw i8, ptr %4, i64 64
  store i64 0, ptr %49, align 8
  tail call void @g_free(ptr noundef nonnull %.032)
  store ptr %4, ptr %calloc.i, align 8
  %50 = call i32 @uat_load_lex(ptr noundef nonnull %calloc.i)
  %51 = call i32 @uat_load_lex_destroy(ptr noundef nonnull %calloc.i)
  %52 = load ptr, ptr %47, align 8
  call void @g_free(ptr noundef %52)
  %53 = call i32 @fclose(ptr noundef nonnull %25)
  %54 = getelementptr inbounds nuw i8, ptr %0, i64 152
  store i8 0, ptr %54, align 8
  %55 = getelementptr inbounds nuw i8, ptr %0, i64 176
  store i8 1, ptr %55, align 8
  %56 = getelementptr inbounds nuw i8, ptr %0, i64 128
  %57 = load ptr, ptr %56, align 8
  %58 = load ptr, ptr %57, align 8
  %59 = getelementptr inbounds nuw i8, ptr %0, i64 48
  %60 = load ptr, ptr %59, align 8
  store ptr %58, ptr %60, align 8
  %61 = load ptr, ptr %56, align 8
  %62 = getelementptr inbounds nuw i8, ptr %61, i64 8
  %63 = load i32, ptr %62, align 8
  %64 = getelementptr inbounds nuw i8, ptr %0, i64 56
  %65 = load ptr, ptr %64, align 8
  store i32 %63, ptr %65, align 4
  %66 = load ptr, ptr %41, align 8
  %.not42 = icmp eq ptr %66, null
  br i1 %.not42, label %68, label %67

67:                                               ; preds = %38
  store ptr %66, ptr %2, align 8
  br label %73

68:                                               ; preds = %38
  %69 = getelementptr inbounds nuw i8, ptr %0, i64 88
  %70 = load ptr, ptr %69, align 8
  %.not43 = icmp eq ptr %70, null
  br i1 %.not43, label %72, label %71

71:                                               ; preds = %68
  call void %70()
  br label %72

72:                                               ; preds = %71, %68
  store ptr null, ptr %2, align 8
  br label %73

73:                                               ; preds = %10, %23, %72, %67, %33, %26
  %.0 = phi i1 [ false, %33 ], [ false, %67 ], [ true, %72 ], [ false, %26 ], [ true, %23 ], [ true, %10 ]
  call void @llvm.lifetime.end.p0(i64 72, ptr nonnull %4) #26
  ret i1 %.0
}